target datalayout = "e-m:e-p270:32:32-p271:32:32-p272:64:64-i64:64-i128:128-f80:128-n8:16:32:64-S128"
target triple = "x86_64-pc-linux-gnu"

%struct.expert_field = type { i32, i32 }

@hf_cigi3_3_symbol_text_definition_symbol_id = internal global i32 0, align 4
@hf_cigi3_3_symbol_text_definition_alignment = internal global i32 0, align 4
@hf_cigi3_3_symbol_text_definition_orientation = internal global i32 0, align 4
@hf_cigi3_3_symbol_text_definition_font_ident = internal global i32 0, align 4
@hf_cigi3_3_symbol_text_definition_font_size = internal global i32 0, align 4
@hf_cigi3_3_symbol_text_definition_text = internal global i32 0, align 4
@ei_cigi_invalid_len = internal global %struct.expert_field zeroinitializer, align 4
@cigi_byte_order = internal global i32 0, align 4
@cigi_minor_version = internal global i32 0, align 4
@.str.2894 = private unnamed_addr constant [45 x i8] c"Insufficient room for symbol text definition\00", align 1

; Function Attrs: null_pointer_is_valid sspstrong uwtable
define internal i32 @cigi3_3_add_symbol_text_definition(ptr noundef %0, ptr noundef %1, ptr noundef %2, ptr noundef %3) #0 {
  %5 = alloca i32, align 4
  %6 = alloca ptr, align 8
  %7 = alloca ptr, align 8
  %8 = alloca ptr, align 8
  %9 = alloca ptr, align 8
  %10 = alloca i32, align 4
  %11 = alloca i32, align 4
  store ptr %0, ptr %6, align 8
  store ptr %1, ptr %7, align 8
  store ptr %2, ptr %8, align 8
  store ptr %3, ptr %9, align 8
  call void @llvm.lifetime.start.p0(i64 4, ptr %10) #5
  store i32 0, ptr %10, align 4
  %12 = load i32, ptr @cigi_minor_version, align 4
  %13 = icmp slt i32 %12, 3
  br i1 %13, label %14, label %16

14:                                               ; preds = %4
  %15 = load i32, ptr %10, align 4
  store i32 %15, ptr %5, align 4
  store i32 1, ptr %11, align 4
  br label %79

16:                                               ; preds = %4
  %17 = load ptr, ptr %8, align 8
  %18 = load i32, ptr @hf_cigi3_3_symbol_text_definition_symbol_id, align 4
  %19 = load ptr, ptr %6, align 8
  %20 = load i32, ptr %10, align 4
  %21 = load i32, ptr @cigi_byte_order, align 4
  %22 = call ptr @proto_tree_add_item(ptr noundef %17, i32 noundef %18, ptr noundef %19, i32 noundef %20, i32 noundef 2, i32 noundef %21)
  %23 = load i32, ptr %10, align 4
  %24 = add i32 %23, 2
  store i32 %24, ptr %10, align 4
  %25 = load ptr, ptr %8, align 8
  %26 = load i32, ptr @hf_cigi3_3_symbol_text_definition_alignment, align 4
  %27 = load ptr, ptr %6, align 8
  %28 = load i32, ptr %10, align 4
  %29 = load i32, ptr @cigi_byte_order, align 4
  %30 = call ptr @proto_tree_add_item(ptr noundef %25, i32 noundef %26, ptr noundef %27, i32 noundef %28, i32 noundef 1, i32 noundef %29)
  %31 = load ptr, ptr %8, align 8
  %32 = load i32, ptr @hf_cigi3_3_symbol_text_definition_orientation, align 4
  %33 = load ptr, ptr %6, align 8
  %34 = load i32, ptr %10, align 4
  %35 = load i32, ptr @cigi_byte_order, align 4
  %36 = call ptr @proto_tree_add_item(ptr noundef %31, i32 noundef %32, ptr noundef %33, i32 noundef %34, i32 noundef 1, i32 noundef %35)
  %37 = load i32, ptr %10, align 4
  %38 = add i32 %37, 1
  store i32 %38, ptr %10, align 4
  %39 = load ptr, ptr %8, align 8
  %40 = load i32, ptr @hf_cigi3_3_symbol_text_definition_font_ident, align 4
  %41 = load ptr, ptr %6, align 8
  %42 = load i32, ptr %10, align 4
  %43 = load i32, ptr @cigi_byte_order, align 4
  %44 = call ptr @proto_tree_add_item(ptr noundef %39, i32 noundef %40, ptr noundef %41, i32 noundef %42, i32 noundef 1, i32 noundef %43)
  %45 = load i32, ptr %10, align 4
  %46 = add i32 %45, 3
  store i32 %46, ptr %10, align 4
  %47 = load ptr, ptr %8, align 8
  %48 = load i32, ptr @hf_cigi3_3_symbol_text_definition_font_size, align 4
  %49 = load ptr, ptr %6, align 8
  %50 = load i32, ptr %10, align 4
  %51 = load i32, ptr @cigi_byte_order, align 4
  %52 = call ptr @proto_tree_add_item(ptr noundef %47, i32 noundef %48, ptr noundef %49, i32 noundef %50, i32 noundef 4, i32 noundef %51)
  %53 = load i32, ptr %10, align 4
  %54 = add i32 %53, 4
  store i32 %54, ptr %10, align 4
  %55 = load ptr, ptr %6, align 8
  %56 = load i32, ptr %10, align 4
  %57 = call i32 @tvb_reported_length_remaining(ptr noundef %55, i32 noundef %56)
  %58 = icmp slt i32 %57, 2
  br i1 %58, label %59, label %66

59:                                               ; preds = %16
  %60 = load ptr, ptr %8, align 8
  %61 = load ptr, ptr %7, align 8
  %62 = load ptr, ptr %6, align 8
  %63 = load ptr, ptr %6, align 8
  %64 = call i32 @tvb_reported_length(ptr noundef %63)
  %65 = call ptr (ptr, ptr, ptr, ptr, i32, i32, ptr, ...) @proto_tree_add_expert_format(ptr noundef %60, ptr noundef %61, ptr noundef @ei_cigi_invalid_len, ptr noundef %62, i32 noundef 0, i32 noundef %64, ptr noundef @.str.2894)
  br label %76

66:                                               ; preds = %16
  %67 = load ptr, ptr %8, align 8
  %68 = load i32, ptr @hf_cigi3_3_symbol_text_definition_text, align 4
  %69 = load ptr, ptr %6, align 8
  %70 = load i32, ptr %10, align 4
  %71 = load ptr, ptr %6, align 8
  %72 = load i32, ptr %10, align 4
  %73 = call i32 @tvb_reported_length_remaining(ptr noundef %71, i32 noundef %72)
  %74 = load i32, ptr @cigi_byte_order, align 4
  %75 = call ptr @proto_tree_add_item(ptr noundef %67, i32 noundef %68, ptr noundef %69, i32 noundef %70, i32 noundef %73, i32 noundef %74)
  br label %76

76:                                               ; preds = %66, %59
  %77 = load ptr, ptr %6, align 8
  %78 = call i32 @tvb_reported_length(ptr noundef %77)
  store i32 %78, ptr %5, align 4
  store i32 1, ptr %11, align 4
  br label %79

79:                                               ; preds = %76, %14
  call void @llvm.lifetime.end.p0(i64 4, ptr %10) #5
  %80 = load i32, ptr %5, align 4
  ret i32 %80
}