; Function Attrs: null_pointer_is_valid sspstrong uwtable
define internal i32 @cigi3_3_add_symbol_text_definition(ptr noundef %0, ptr noundef %1, ptr noundef %2, ptr readnone captures(none) %3) #0 {
  %5 = load i32, ptr @cigi_minor_version, align 4
  %6 = icmp slt i32 %5, 3
  br i1 %6, label %35, label %7

7:                                                ; preds = %4
  %8 = load i32, ptr @hf_cigi3_3_symbol_text_definition_symbol_id, align 4
  %.b36 = load i1, ptr @cigi_byte_order, align 4
  %9 = select i1 %.b36, i32 -2147483648, i32 0
  %10 = tail call ptr @proto_tree_add_item(ptr noundef %2, i32 noundef %8, ptr noundef %0, i32 noundef 0, i32 noundef 2, i32 noundef %9)
  %11 = load i32, ptr @hf_cigi3_3_symbol_text_definition_alignment, align 4
  %.b35 = load i1, ptr @cigi_byte_order, align 4
  %12 = select i1 %.b35, i32 -2147483648, i32 0
  %13 = tail call ptr @proto_tree_add_item(ptr noundef %2, i32 noundef %11, ptr noundef %0, i32 noundef 2, i32 noundef 1, i32 noundef %12)
  %14 = load i32, ptr @hf_cigi3_3_symbol_text_definition_orientation, align 4
  %.b34 = load i1, ptr @cigi_byte_order, align 4
  %15 = select i1 %.b34, i32 -2147483648, i32 0
  %16 = tail call ptr @proto_tree_add_item(ptr noundef %2, i32 noundef %14, ptr noundef %0, i32 noundef 2, i32 noundef 1, i32 noundef %15)
  %17 = load i32, ptr @hf_cigi3_3_symbol_text_definition_font_ident, align 4
  %.b33 = load i1, ptr @cigi_byte_order, align 4
  %18 = select i1 %.b33, i32 -2147483648, i32 0
  %19 = tail call ptr @proto_tree_add_item(ptr noundef %2, i32 noundef %17, ptr noundef %0, i32 noundef 3, i32 noundef 1, i32 noundef %18)
  %20 = load i32, ptr @hf_cigi3_3_symbol_text_definition_font_size, align 4
  %.b32 = load i1, ptr @cigi_byte_order, align 4
  %21 = select i1 %.b32, i32 -2147483648, i32 0
  %22 = tail call ptr @proto_tree_add_item(ptr noundef %2, i32 noundef %20, ptr noundef %0, i32 noundef 6, i32 noundef 4, i32 noundef %21)
  %23 = tail call i32 @tvb_reported_length_remaining(ptr noundef %0, i32 noundef 10)
  %24 = icmp slt i32 %23, 2
  br i1 %24, label %25, label %28

25:                                               ; preds = %7
  %26 = tail call i32 @tvb_reported_length(ptr noundef %0)
  %27 = tail call ptr (ptr, ptr, ptr, ptr, i32, i32, ptr, ...) @proto_tree_add_expert_format(ptr noundef %2, ptr noundef %1, ptr noundef nonnull @ei_cigi_invalid_len, ptr noundef %0, i32 noundef 0, i32 noundef %26, ptr noundef nonnull @.str.2894)
  br label %33

28:                                               ; preds = %7
  %29 = load i32, ptr @hf_cigi3_3_symbol_text_definition_text, align 4
  %30 = tail call i32 @tvb_reported_length_remaining(ptr noundef %0, i32 noundef 10)
  %.b = load i1, ptr @cigi_byte_order, align 4
  %31 = select i1 %.b, i32 -2147483648, i32 0
  %32 = tail call ptr @proto_tree_add_item(ptr noundef %2, i32 noundef %29, ptr noundef %0, i32 noundef 10, i32 noundef %30, i32 noundef %31)
  br label %33

33:                                               ; preds = %28, %25
  %34 = tail call i32 @tvb_reported_length(ptr noundef %0)
  br label %35

35:                                               ; preds = %4, %33
  %.0 = phi i32 [ %34, %33 ], [ 0, %4 ]
  ret i32 %.0
}